; Function Attrs: mustprogress uwtable
define internal void @"_ZNSt17_Function_handlerIFvPKcS1_EZNK14V3OptionParser12AppendHelperclES1_NS4_17CbPartialMatchValESt8functionIS2_EE3$_0E9_M_invokeERKSt9_Any_dataOS1_SD_"(ptr nocapture noundef nonnull readonly align 8 dereferenceable(16) %0, ptr nocapture noundef nonnull readonly align 8 dereferenceable(8) %1, ptr nocapture noundef nonnull readonly align 8 dereferenceable(8) %2) #3 align 2 {
  %4 = alloca ptr, align 8
  %5 = alloca ptr, align 8
  %.val = load ptr, ptr %0, align 8
  %.val3 = load ptr, ptr %1, align 8
  %.val4 = load ptr, ptr %2, align 8
  %6 = load i64, ptr %.val, align 8
  %7 = getelementptr inbounds i8, ptr %.val3, i64 %6
  call void @llvm.lifetime.start.p0(i64 8, ptr nonnull %4)
  call void @llvm.lifetime.start.p0(i64 8, ptr nonnull %5)
  store ptr %7, ptr %4, align 8
  store ptr %.val4, ptr %5, align 8
  %8 = getelementptr inbounds i8, ptr %.val, i64 24
  %9 = load ptr, ptr %8, align 8
  %.not.i.i.i.i.i = icmp eq ptr %9, null
  br i1 %.not.i.i.i.i.i, label %10, label %"_ZSt10__invoke_rIvRZNK14V3OptionParser12AppendHelperclEPKcNS1_17CbPartialMatchValESt8functionIFvS3_S3_EEE3$_0JS3_S3_EENSt9enable_ifIX16is_invocable_r_vIT_T0_DpT1_EESB_E4typeEOSC_DpOSD_.exit"

10:                                               ; preds = %3
  tail call void @_ZSt25__throw_bad_function_callv() #18
  unreachable

"_ZSt10__invoke_rIvRZNK14V3OptionParser12AppendHelperclEPKcNS1_17CbPartialMatchValESt8functionIFvS3_S3_EEE3$_0JS3_S3_EENSt9enable_ifIX16is_invocable_r_vIT_T0_DpT1_EESB_E4typeEOSC_DpOSD_.exit": ; preds = %3
  %11 = getelementptr inbounds i8, ptr %.val, i64 8
  %12 = getelementptr inbounds i8, ptr %.val, i64 32
  %13 = load ptr, ptr %12, align 8
  call void %13(ptr noundef nonnull align 8 dereferenceable(16) %11, ptr noundef nonnull align 8 dereferenceable(8) %4, ptr noundef nonnull align 8 dereferenceable(8) %5)
  call void @llvm.lifetime.end.p0(i64 8, ptr nonnull %4)
  call void @llvm.lifetime.end.p0(i64 8, ptr nonnull %5)
  ret void
}